; Function Attrs: nounwind uwtable
define internal fastcc noalias nonnull ptr @_init_l_Lean_Linter_MissingDocs_initFn____x40_Lean_Linter_MissingDocs___hyg_370____closed__10() unnamed_addr #0 {
  %1 = load ptr, ptr @l_Lean_Linter_MissingDocs_initFn____x40_Lean_Linter_MissingDocs___hyg_370____closed__2, align 8, !tbaa !4
  %2 = load ptr, ptr @l_Lean_Linter_MissingDocs_initFn____x40_Lean_Linter_MissingDocs___hyg_370____closed__5, align 8, !tbaa !4
  %3 = load ptr, ptr @l_Lean_Linter_MissingDocs_initFn____x40_Lean_Linter_MissingDocs___hyg_370____closed__6, align 8, !tbaa !4
  %4 = load ptr, ptr @l_Lean_Linter_MissingDocs_initFn____x40_Lean_Linter_MissingDocs___hyg_370____closed__7, align 8, !tbaa !4
  %5 = load ptr, ptr @l_Lean_Linter_MissingDocs_initFn____x40_Lean_Linter_MissingDocs___hyg_370____closed__8, align 8, !tbaa !4
  %6 = load ptr, ptr @l_Lean_Linter_MissingDocs_initFn____x40_Lean_Linter_MissingDocs___hyg_370____closed__9, align 8, !tbaa !4
  tail call void @lean_inc_heartbeat() #5
  %7 = tail call noalias ptr @mi_malloc_small(i64 noundef 80) #5
  %8 = icmp eq ptr %7, null
  br i1 %8, label %9, label %lean_alloc_ctor.exit

9:                                                ; preds = %0
  tail call void @lean_internal_panic_out_of_memory() #6
  unreachable

lean_alloc_ctor.exit:                             ; preds = %0
  %10 = getelementptr inbounds nuw i8, ptr %7, i64 4
  %11 = getelementptr inbounds nuw i8, ptr %7, i64 72
  store i64 2, ptr %11, align 8, !tbaa !12
  store i32 1, ptr %7, align 4, !tbaa !8
  store i32 524368, ptr %10, align 4
  %12 = getelementptr inbounds nuw i8, ptr %7, i64 8
  store ptr %1, ptr %12, align 8, !tbaa !4
  %13 = getelementptr inbounds nuw i8, ptr %7, i64 16
  store ptr %2, ptr %13, align 8, !tbaa !4
  %14 = getelementptr inbounds nuw i8, ptr %7, i64 24
  store ptr %3, ptr %14, align 8, !tbaa !4
  %15 = getelementptr inbounds nuw i8, ptr %7, i64 32
  store ptr %4, ptr %15, align 8, !tbaa !4
  %16 = getelementptr inbounds nuw i8, ptr %7, i64 40
  store ptr %5, ptr %16, align 8, !tbaa !4
  %17 = getelementptr inbounds nuw i8, ptr %7, i64 48
  store ptr %5, ptr %17, align 8, !tbaa !4
  %18 = getelementptr inbounds nuw i8, ptr %7, i64 56
  store ptr %6, ptr %18, align 8, !tbaa !4
  %19 = getelementptr inbounds nuw i8, ptr %7, i64 64
  store ptr inttoptr (i64 1 to ptr), ptr %19, align 8, !tbaa !4
  ret ptr %7
}